; Function Attrs: mustprogress nofree norecurse nosync nounwind willreturn memory(argmem: write) uwtable
define range(i32 -22, 1) i32 @av_chroma_location_enum_to_pos(ptr noundef writeonly captures(none) %0, ptr noundef writeonly captures(none) %1, i32 noundef %2) local_unnamed_addr #10 {
  %4 = add i32 %2, -7
  %or.cond = icmp ult i32 %4, -6
  br i1 %or.cond, label %14, label %5

5:                                                ; preds = %3
  %6 = add nsw i32 %2, -1
  %7 = shl nuw nsw i32 %6, 7
  %8 = and i32 %7, 128
  store i32 %8, ptr %0, align 4, !tbaa !4
  %9 = lshr i32 %6, 1
  %10 = icmp samesign ult i32 %6, 4
  %11 = zext i1 %10 to i32
  %12 = xor i32 %9, %11
  %13 = shl nuw nsw i32 %12, 7
  store i32 %13, ptr %1, align 4, !tbaa !4
  br label %14

14:                                               ; preds = %3, %5
  %.0 = phi i32 [ 0, %5 ], [ -22, %3 ]
  ret i32 %.0
}